; Function Attrs: nounwind uwtable
define void @PMIx_Geometry_destruct(ptr noundef captures(none) %0) local_unnamed_addr #6 {
  %2 = getelementptr inbounds nuw i8, ptr %0, i64 8
  %3 = load ptr, ptr %2, align 8, !tbaa !36
  %.not.i = icmp eq ptr %3, null
  br i1 %.not.i, label %5, label %4

4:                                                ; preds = %1
  tail call void @free(ptr noundef nonnull %3) #44
  store ptr null, ptr %2, align 8, !tbaa !36
  br label %5

5:                                                ; preds = %4, %1
  %6 = getelementptr inbounds nuw i8, ptr %0, i64 16
  %7 = load ptr, ptr %6, align 8, !tbaa !39
  %.not14.i = icmp eq ptr %7, null
  br i1 %.not14.i, label %9, label %8

8:                                                ; preds = %5
  tail call void @free(ptr noundef nonnull %7) #44
  store ptr null, ptr %6, align 8, !tbaa !39
  br label %9

9:                                                ; preds = %8, %5
  %10 = getelementptr inbounds nuw i8, ptr %0, i64 24
  %11 = load ptr, ptr %10, align 8, !tbaa !40
  %.not15.i = icmp eq ptr %11, null
  br i1 %.not15.i, label %pmix_bfrops_base_tma_geometry_destruct.exit, label %.preheader.i.i

.preheader.i.i:                                   ; preds = %9
  %12 = getelementptr inbounds nuw i8, ptr %0, i64 32
  %13 = load i64, ptr %12, align 8, !tbaa !41
  %.not2.i.i = icmp eq i64 %13, 0
  br i1 %.not2.i.i, label %pmix_bfrops_base_tma_coord_free.exit.i, label %.lr.ph.i.i

.lr.ph.i.i:                                       ; preds = %.preheader.i.i, %pmix_bfrops_base_tma_coord_destruct.exit.i.i
  %.01.i.i = phi i64 [ %18, %pmix_bfrops_base_tma_coord_destruct.exit.i.i ], [ 0, %.preheader.i.i ]
  %14 = getelementptr inbounds nuw %struct.pmix_coord, ptr %11, i64 %.01.i.i
  store i8 0, ptr %14, align 8, !tbaa !31
  %15 = getelementptr inbounds nuw i8, ptr %14, i64 8
  %16 = load ptr, ptr %15, align 8, !tbaa !35
  %.not8.i.i.i = icmp eq ptr %16, null
  br i1 %.not8.i.i.i, label %pmix_bfrops_base_tma_coord_destruct.exit.i.i, label %17

17:                                               ; preds = %.lr.ph.i.i
  tail call void @free(ptr noundef nonnull %16) #44
  tail call void @llvm.memset.p0.i64(ptr noundef nonnull align 8 dereferenceable(16) %15, i8 0, i64 16, i1 false)
  br label %pmix_bfrops_base_tma_coord_destruct.exit.i.i

pmix_bfrops_base_tma_coord_destruct.exit.i.i:     ; preds = %17, %.lr.ph.i.i
  %18 = add nuw i64 %.01.i.i, 1
  %exitcond.not.i.i = icmp eq i64 %18, %13
  br i1 %exitcond.not.i.i, label %pmix_bfrops_base_tma_coord_free.exit.i, label %.lr.ph.i.i, !llvm.loop !42

pmix_bfrops_base_tma_coord_free.exit.i:           ; preds = %pmix_bfrops_base_tma_coord_destruct.exit.i.i, %.preheader.i.i
  tail call void @free(ptr noundef nonnull %11) #44
  br label %pmix_bfrops_base_tma_geometry_destruct.exit

pmix_bfrops_base_tma_geometry_destruct.exit:      ; preds = %9, %pmix_bfrops_base_tma_coord_free.exit.i
  ret void
}